target datalayout = "e-m:e-p270:32:32-p271:32:32-p272:64:64-i64:64-i128:128-f80:128-n8:16:32:64-S128"
target triple = "x86_64-pc-linux-gnu"

%"class.icu_77::UObject" = type { ptr }
%"class.icu_77::StringTrieBuilder::FinalValueNode" = type <{ %"class.icu_77::StringTrieBuilder::Node", i32, [4 x i8] }>
%"class.icu_77::StringTrieBuilder::Node" = type { %"class.icu_77::UObject", i32, i32 }

; Function Attrs: mustprogress uwtable
define void @_ZN6icu_7717StringTrieBuilder14FinalValueNode5writeERS0_(ptr noundef nonnull align 8 dereferenceable(20) %0, ptr noundef nonnull align 8 dereferenceable(16) %1) unnamed_addr #2 align 2 {
  %3 = alloca ptr, align 8
  %4 = alloca ptr, align 8
  store ptr %0, ptr %3, align 8, !tbaa !68
  store ptr %1, ptr %4, align 8, !tbaa !3
  %5 = load ptr, ptr %3, align 8
  %6 = load ptr, ptr %4, align 8, !tbaa !3
  %7 = getelementptr inbounds nuw %"class.icu_77::StringTrieBuilder::FinalValueNode", ptr %5, i32 0, i32 1
  %8 = load i32, ptr %7, align 8, !tbaa !70
  %9 = load ptr, ptr %6, align 8, !tbaa !8
  %10 = getelementptr inbounds ptr, ptr %9, i64 17
  %11 = load ptr, ptr %10, align 8
  %12 = call noundef i32 %11(ptr noundef nonnull align 8 dereferenceable(16) %6, i32 noundef %8, i8 noundef signext 1)
  %13 = getelementptr inbounds nuw %"class.icu_77::StringTrieBuilder::Node", ptr %5, i32 0, i32 2
  store i32 %12, ptr %13, align 4, !tbaa !77
  ret void
}