; Function Attrs: mustprogress uwtable
define void @_ZN6icu_7717StringTrieBuilder14FinalValueNode5writeERS0_(ptr noundef nonnull align 8 captures(none) dereferenceable(20) initializes((12, 16)) %0, ptr noundef nonnull align 8 dereferenceable(16) %1) unnamed_addr #2 align 2 {
  %3 = getelementptr inbounds nuw i8, ptr %0, i64 16
  %4 = load i32, ptr %3, align 8, !tbaa !39
  %5 = load ptr, ptr %1, align 8, !tbaa !3
  %6 = getelementptr inbounds nuw i8, ptr %5, i64 136
  %7 = load ptr, ptr %6, align 8
  %8 = tail call noundef i32 %7(ptr noundef nonnull align 8 dereferenceable(16) %1, i32 noundef %4, i8 noundef signext 1)
  %9 = getelementptr inbounds nuw i8, ptr %0, i64 12
  store i32 %8, ptr %9, align 4, !tbaa !21
  ret void
}